target datalayout = "e-m:e-p270:32:32-p271:32:32-p272:64:64-i64:64-i128:128-f80:128-n8:16:32:64-S128"
target triple = "x86_64-pc-linux-gnu"

%struct.option = type { i32, i32, ptr, ptr, ptr, ptr, i32, ptr, i64, ptr, i64, ptr }

@.str.16 = private unnamed_addr constant [5 x i8] c"auto\00", align 1
@.str.75 = private unnamed_addr constant [1 x i8] zeroinitializer, align 1
@git_gettext_enabled = external global i32, align 4
@.str.118 = private unnamed_addr constant [13 x i8] c"builtin/gc.c\00", align 1
@.str.119 = private unnamed_addr constant [41 x i8] c"option callback does not expect negation\00", align 1
@.str.171 = private unnamed_addr constant [39 x i8] c"unrecognized --scheduler argument '%s'\00", align 1
@.str.172 = private unnamed_addr constant [5 x i8] c"cron\00", align 1
@.str.173 = private unnamed_addr constant [8 x i8] c"crontab\00", align 1
@.str.174 = private unnamed_addr constant [8 x i8] c"systemd\00", align 1
@.str.175 = private unnamed_addr constant [14 x i8] c"systemd-timer\00", align 1
@.str.176 = private unnamed_addr constant [10 x i8] c"launchctl\00", align 1
@.str.177 = private unnamed_addr constant [9 x i8] c"schtasks\00", align 1

; Function Attrs: inlinehint nounwind uwtable
define internal i32 @const_error() #6 {
  ret i32 -1
}

; Function Attrs: inlinehint nounwind uwtable
define internal ptr @_(ptr noundef %0) #6 {
  %2 = alloca ptr, align 8
  %3 = alloca ptr, align 8
  store ptr %0, ptr %3, align 8, !tbaa !11
  %4 = load ptr, ptr %3, align 8, !tbaa !11
  %5 = load i8, ptr %4, align 1, !tbaa !93
  %6 = icmp ne i8 %5, 0
  br i1 %6, label %8, label %7

7:                                                ; preds = %1
  store ptr @.str.75, ptr %2, align 8
  br label %16

8:                                                ; preds = %1
  %9 = load i32, ptr @git_gettext_enabled, align 4, !tbaa !4
  %10 = icmp ne i32 %9, 0
  br i1 %10, label %13, label %11

11:                                               ; preds = %8
  %12 = load ptr, ptr %3, align 8, !tbaa !11
  store ptr %12, ptr %2, align 8
  br label %16

13:                                               ; preds = %8
  %14 = load ptr, ptr %3, align 8, !tbaa !11
  %15 = call ptr @dcgettext(ptr noundef null, ptr noundef %14, i32 noundef 5) #11
  store ptr %15, ptr %2, align 8
  br label %16

16:                                               ; preds = %13, %11, %7
  %17 = load ptr, ptr %2, align 8
  ret ptr %17
}

; Function Attrs: nounwind uwtable
define internal i32 @parse_scheduler(ptr noundef %0) #0 {
  %2 = alloca i32, align 4
  %3 = alloca ptr, align 8
  store ptr %0, ptr %3, align 8, !tbaa !11
  %4 = load ptr, ptr %3, align 8, !tbaa !11
  %5 = icmp ne ptr %4, null
  br i1 %5, label %7, label %6

6:                                                ; preds = %1
  store i32 -1, ptr %2, align 4
  br label %41

7:                                                ; preds = %1
  %8 = load ptr, ptr %3, align 8, !tbaa !11
  %9 = call i32 @strcasecmp(ptr noundef %8, ptr noundef @.str.16) #13
  %10 = icmp ne i32 %9, 0
  br i1 %10, label %12, label %11

11:                                               ; preds = %7
  store i32 0, ptr %2, align 4
  br label %41

12:                                               ; preds = %7
  %13 = load ptr, ptr %3, align 8, !tbaa !11
  %14 = call i32 @strcasecmp(ptr noundef %13, ptr noundef @.str.172) #13
  %15 = icmp ne i32 %14, 0
  br i1 %15, label %16, label %20

16:                                               ; preds = %12
  %17 = load ptr, ptr %3, align 8, !tbaa !11
  %18 = call i32 @strcasecmp(ptr noundef %17, ptr noundef @.str.173) #13
  %19 = icmp ne i32 %18, 0
  br i1 %19, label %21, label %20

20:                                               ; preds = %16, %12
  store i32 1, ptr %2, align 4
  br label %41

21:                                               ; preds = %16
  %22 = load ptr, ptr %3, align 8, !tbaa !11
  %23 = call i32 @strcasecmp(ptr noundef %22, ptr noundef @.str.174) #13
  %24 = icmp ne i32 %23, 0
  br i1 %24, label %25, label %29

25:                                               ; preds = %21
  %26 = load ptr, ptr %3, align 8, !tbaa !11
  %27 = call i32 @strcasecmp(ptr noundef %26, ptr noundef @.str.175) #13
  %28 = icmp ne i32 %27, 0
  br i1 %28, label %30, label %29

29:                                               ; preds = %25, %21
  store i32 2, ptr %2, align 4
  br label %41

30:                                               ; preds = %25
  %31 = load ptr, ptr %3, align 8, !tbaa !11
  %32 = call i32 @strcasecmp(ptr noundef %31, ptr noundef @.str.176) #13
  %33 = icmp ne i32 %32, 0
  br i1 %33, label %35, label %34

34:                                               ; preds = %30
  store i32 3, ptr %2, align 4
  br label %41

35:                                               ; preds = %30
  %36 = load ptr, ptr %3, align 8, !tbaa !11
  %37 = call i32 @strcasecmp(ptr noundef %36, ptr noundef @.str.177) #13
  %38 = icmp ne i32 %37, 0
  br i1 %38, label %40, label %39

39:                                               ; preds = %35
  store i32 4, ptr %2, align 4
  br label %41

40:                                               ; preds = %35
  store i32 -1, ptr %2, align 4
  br label %41

41:                                               ; preds = %40, %39, %34, %29, %20, %11, %6
  %42 = load i32, ptr %2, align 4
  ret i32 %42
}

; Function Attrs: nounwind uwtable
define internal i32 @maintenance_opt_scheduler(ptr noundef %0, ptr noundef %1, i32 noundef %2) #0 {
  %4 = alloca i32, align 4
  %5 = alloca ptr, align 8
  %6 = alloca ptr, align 8
  %7 = alloca i32, align 4
  %8 = alloca ptr, align 8
  %9 = alloca i32, align 4
  store ptr %0, ptr %5, align 8, !tbaa !149
  store ptr %1, ptr %6, align 8, !tbaa !11
  store i32 %2, ptr %7, align 4, !tbaa !4
  call void @llvm.lifetime.start.p0(i64 8, ptr %8) #11
  %10 = load ptr, ptr %5, align 8, !tbaa !149
  %11 = getelementptr inbounds nuw %struct.option, ptr %10, i32 0, i32 3
  %12 = load ptr, ptr %11, align 8, !tbaa !38
  store ptr %12, ptr %8, align 8, !tbaa !54
  br label %13

13:                                               ; preds = %3
  %14 = load i32, ptr %7, align 4, !tbaa !4
  %15 = icmp ne i32 %14, 0
  br i1 %15, label %16, label %17

16:                                               ; preds = %13
  call void (ptr, i32, ptr, ...) @BUG_fl(ptr noundef @.str.118, i32 noundef 2852, ptr noundef @.str.119) #12
  unreachable

17:                                               ; preds = %13
  br label %18

18:                                               ; preds = %17
  br label %19

19:                                               ; preds = %18
  %20 = load ptr, ptr %6, align 8, !tbaa !11
  %21 = call i32 @parse_scheduler(ptr noundef %20)
  %22 = load ptr, ptr %8, align 8, !tbaa !54
  store i32 %21, ptr %22, align 4, !tbaa !4
  %23 = load ptr, ptr %8, align 8, !tbaa !54
  %24 = load i32, ptr %23, align 4, !tbaa !4
  %25 = icmp eq i32 %24, -1
  br i1 %25, label %26, label %31

26:                                               ; preds = %19
  %27 = call ptr @_(ptr noundef @.str.171)
  %28 = load ptr, ptr %6, align 8, !tbaa !11
  %29 = call i32 (ptr, ...) @error(ptr noundef %27, ptr noundef %28)
  %30 = call i32 @const_error()
  store i32 %30, ptr %4, align 4
  store i32 1, ptr %9, align 4
  br label %32

31:                                               ; preds = %19
  store i32 0, ptr %4, align 4
  store i32 1, ptr %9, align 4
  br label %32

32:                                               ; preds = %31, %26
  call void @llvm.lifetime.end.p0(i64 8, ptr %8) #11
  %33 = load i32, ptr %4, align 4
  ret i32 %33
}