; Function Attrs: nounwind uwtable
define internal range(i32 -1, 1) i32 @maintenance_opt_scheduler(ptr noundef readonly captures(none) %0, ptr noundef %1, i32 noundef %2) #0 {
  %.not = icmp eq i32 %2, 0
  br i1 %.not, label %5, label %4

4:                                                ; preds = %3
  tail call void (ptr, i32, ptr, ...) @BUG_fl(ptr noundef nonnull @.str.118, i32 noundef 2852, ptr noundef nonnull @.str.119) #22
  unreachable

5:                                                ; preds = %3
  %6 = getelementptr inbounds nuw i8, ptr %0, i64 16
  %7 = load ptr, ptr %6, align 8, !tbaa !31
  %.not.i = icmp eq ptr %1, null
  br i1 %.not.i, label %22, label %8

8:                                                ; preds = %5
  %9 = tail call i32 @strcasecmp(ptr noundef nonnull readonly %1, ptr noundef nonnull @.str.16) #25
  %.not9.i = icmp eq i32 %9, 0
  br i1 %.not9.i, label %parse_scheduler.exit.thread, label %10

10:                                               ; preds = %8
  %11 = tail call i32 @strcasecmp(ptr noundef nonnull readonly %1, ptr noundef nonnull @.str.172) #25
  %.not10.i = icmp eq i32 %11, 0
  br i1 %.not10.i, label %parse_scheduler.exit.thread, label %12

12:                                               ; preds = %10
  %13 = tail call i32 @strcasecmp(ptr noundef nonnull readonly %1, ptr noundef nonnull @.str.173) #25
  %.not11.i = icmp eq i32 %13, 0
  br i1 %.not11.i, label %parse_scheduler.exit.thread, label %14

14:                                               ; preds = %12
  %15 = tail call i32 @strcasecmp(ptr noundef nonnull readonly %1, ptr noundef nonnull @.str.174) #25
  %.not12.i = icmp eq i32 %15, 0
  br i1 %.not12.i, label %parse_scheduler.exit.thread, label %16

16:                                               ; preds = %14
  %17 = tail call i32 @strcasecmp(ptr noundef nonnull readonly %1, ptr noundef nonnull @.str.175) #25
  %.not13.i = icmp eq i32 %17, 0
  br i1 %.not13.i, label %parse_scheduler.exit.thread, label %18

18:                                               ; preds = %16
  %19 = tail call i32 @strcasecmp(ptr noundef nonnull readonly %1, ptr noundef nonnull @.str.176) #25
  %.not14.i = icmp eq i32 %19, 0
  br i1 %.not14.i, label %parse_scheduler.exit.thread, label %20

20:                                               ; preds = %18
  %21 = tail call i32 @strcasecmp(ptr noundef nonnull readonly %1, ptr noundef nonnull @.str.177) #25
  %.not15.i = icmp eq i32 %21, 0
  br i1 %.not15.i, label %parse_scheduler.exit.thread, label %22

parse_scheduler.exit.thread:                      ; preds = %8, %12, %10, %16, %14, %18, %20
  %.0.i.ph = phi i32 [ 3, %18 ], [ 2, %14 ], [ 2, %16 ], [ 1, %10 ], [ 1, %12 ], [ 0, %8 ], [ 4, %20 ]
  store i32 %.0.i.ph, ptr %7, align 4, !tbaa !4
  br label %27

22:                                               ; preds = %5, %20
  store i32 -1, ptr %7, align 4, !tbaa !4
  %23 = load i32, ptr @git_gettext_enabled, align 4, !tbaa !4
  %.not4.i = icmp eq i32 %23, 0
  br i1 %.not4.i, label %_.exit, label %24

24:                                               ; preds = %22
  %25 = tail call ptr @dcgettext(ptr noundef null, ptr noundef nonnull @.str.171, i32 noundef 5) #21
  br label %_.exit

_.exit:                                           ; preds = %22, %24
  %.0.i6 = phi ptr [ %25, %24 ], [ @.str.171, %22 ]
  %26 = tail call i32 (ptr, ...) @error(ptr noundef %.0.i6, ptr noundef %1) #21
  br label %27

27:                                               ; preds = %parse_scheduler.exit.thread, %_.exit
  %.0 = phi i32 [ -1, %_.exit ], [ 0, %parse_scheduler.exit.thread ]
  ret i32 %.0
}